target datalayout = "e-m:e-p270:32:32-p271:32:32-p272:64:64-i64:64-i128:128-f80:128-n8:16:32:64-S128"
target triple = "x86_64-unknown-linux-gnu"

%"class.std::__cxx11::basic_string" = type { %"struct.std::__cxx11::basic_string<char>::_Alloc_hider", i64, %union.anon }
%"struct.std::__cxx11::basic_string<char>::_Alloc_hider" = type { ptr }
%union.anon = type { i64, [8 x i8] }
%"struct.Imf_3_2::MultiPartInputFile::Data" = type { %"struct.Imf_3_2::InputStreamMutex", i32, i8, %"class.std::vector", i32, i8, %"class.std::map", %"class.std::vector.6" }
%"struct.Imf_3_2::InputStreamMutex" = type { %"class.std::mutex", ptr, i64 }
%"class.std::mutex" = type { %"class.std::__mutex_base" }
%"class.std::__mutex_base" = type { %union.pthread_mutex_t }
%union.pthread_mutex_t = type { %struct.__pthread_mutex_s }
%struct.__pthread_mutex_s = type { i32, i32, i32, i32, i32, i16, i16, %struct.__pthread_internal_list }
%struct.__pthread_internal_list = type { ptr, ptr }
%"class.std::vector" = type { %"struct.std::_Vector_base" }
%"struct.std::_Vector_base" = type { %"struct.std::_Vector_base<Imf_3_2::InputPartData *, std::allocator<Imf_3_2::InputPartData *>>::_Vector_impl" }
%"struct.std::_Vector_base<Imf_3_2::InputPartData *, std::allocator<Imf_3_2::InputPartData *>>::_Vector_impl" = type { %"struct.std::_Vector_base<Imf_3_2::InputPartData *, std::allocator<Imf_3_2::InputPartData *>>::_Vector_impl_data" }
%"struct.std::_Vector_base<Imf_3_2::InputPartData *, std::allocator<Imf_3_2::InputPartData *>>::_Vector_impl_data" = type { ptr, ptr, ptr }
%"class.std::map" = type { %"class.std::_Rb_tree" }
%"class.std::_Rb_tree" = type { %"struct.std::_Rb_tree<int, std::pair<const int, Imf_3_2::GenericInputFile *>, std::_Select1st<std::pair<const int, Imf_3_2::GenericInputFile *>>, std::less<int>>::_Rb_tree_impl" }
%"struct.std::_Rb_tree<int, std::pair<const int, Imf_3_2::GenericInputFile *>, std::_Select1st<std::pair<const int, Imf_3_2::GenericInputFile *>>, std::less<int>>::_Rb_tree_impl" = type { %"struct.std::_Rb_tree_key_compare", %"struct.std::_Rb_tree_header" }
%"struct.std::_Rb_tree_key_compare" = type { %"struct.std::less" }
%"struct.std::less" = type { i8 }
%"struct.std::_Rb_tree_header" = type { %"struct.std::_Rb_tree_node_base", i64 }
%"struct.std::_Rb_tree_node_base" = type { i32, ptr, ptr, ptr }
%"class.std::vector.6" = type { %"struct.std::_Vector_base.7" }
%"struct.std::_Vector_base.7" = type { %"struct.std::_Vector_base<Imf_3_2::Header, std::allocator<Imf_3_2::Header>>::_Vector_impl" }
%"struct.std::_Vector_base<Imf_3_2::Header, std::allocator<Imf_3_2::Header>>::_Vector_impl" = type { %"struct.std::_Vector_base<Imf_3_2::Header, std::allocator<Imf_3_2::Header>>::_Vector_impl_data" }
%"struct.std::_Vector_base<Imf_3_2::Header, std::allocator<Imf_3_2::Header>>::_Vector_impl_data" = type { ptr, ptr, ptr }
%"class.std::__cxx11::basic_stringstream" = type { %"class.std::basic_iostream.base", %"class.std::__cxx11::basic_stringbuf", %"class.std::basic_ios" }
%"class.std::basic_iostream.base" = type { %"class.std::basic_istream.base", %"class.std::basic_ostream.base" }
%"class.std::basic_istream.base" = type { ptr, i64 }
%"class.std::basic_ostream.base" = type { ptr }
%"class.std::__cxx11::basic_stringbuf" = type { %"class.std::basic_streambuf", i32, %"class.std::__cxx11::basic_string" }
%"class.std::basic_streambuf" = type { ptr, ptr, ptr, ptr, ptr, ptr, ptr, %"class.std::locale" }
%"class.std::locale" = type { ptr }
%"class.std::basic_ios" = type { %"class.std::ios_base", ptr, i8, i8, ptr, ptr, ptr, ptr }
%"class.std::ios_base" = type { ptr, i64, i64, i32, i32, i32, ptr, %"struct.std::ios_base::_Words", [8 x %"struct.std::ios_base::_Words"], i32, ptr, %"class.std::locale" }
%"struct.std::ios_base::_Words" = type { ptr, i64 }

@.str.11 = private unnamed_addr constant [15 x i8] c" on file with \00", align 1
@.str.12 = private unnamed_addr constant [7 x i8] c" parts\00", align 1
@_ZTIN7Iex_3_26ArgExcE = external constant ptr
@.str.33 = private unnamed_addr constant [54 x i8] c"MultiPartInputFile::getPart called with invalid part \00", align 1

; Function Attrs: mustprogress nounwind uwtable
define linkonce_odr hidden noundef nonnull align 8 dereferenceable(8) ptr @_ZNSt6vectorIPN7Imf_3_213InputPartDataESaIS2_EEixEm(ptr noundef nonnull align 8 dereferenceable(24) %this, i64 noundef %__n) #5 comdat align 2 {
entry:
  %this.addr = alloca ptr, align 8
  %__n.addr = alloca i64, align 8
  store ptr %this, ptr %this.addr, align 8
  store i64 %__n, ptr %__n.addr, align 8
  %this1 = load ptr, ptr %this.addr, align 8
  %_M_impl = getelementptr inbounds %"struct.std::_Vector_base", ptr %this1, i32 0, i32 0
  %_M_start = getelementptr inbounds %"struct.std::_Vector_base<Imf_3_2::InputPartData *, std::allocator<Imf_3_2::InputPartData *>>::_Vector_impl_data", ptr %_M_impl, i32 0, i32 0
  %0 = load ptr, ptr %_M_start, align 8
  %1 = load i64, ptr %__n.addr, align 8
  %add.ptr = getelementptr inbounds ptr, ptr %0, i64 %1
  ret ptr %add.ptr
}

; Function Attrs: mustprogress nounwind uwtable
define linkonce_odr hidden noundef i64 @_ZNKSt6vectorIPN7Imf_3_213InputPartDataESaIS2_EE4sizeEv(ptr noundef nonnull align 8 dereferenceable(24) %this) #5 comdat align 2 {
entry:
  %this.addr = alloca ptr, align 8
  store ptr %this, ptr %this.addr, align 8
  %this1 = load ptr, ptr %this.addr, align 8
  %_M_impl = getelementptr inbounds %"struct.std::_Vector_base", ptr %this1, i32 0, i32 0
  %_M_finish = getelementptr inbounds %"struct.std::_Vector_base<Imf_3_2::InputPartData *, std::allocator<Imf_3_2::InputPartData *>>::_Vector_impl_data", ptr %_M_impl, i32 0, i32 1
  %0 = load ptr, ptr %_M_finish, align 8
  %_M_impl2 = getelementptr inbounds %"struct.std::_Vector_base", ptr %this1, i32 0, i32 0
  %_M_start = getelementptr inbounds %"struct.std::_Vector_base<Imf_3_2::InputPartData *, std::allocator<Imf_3_2::InputPartData *>>::_Vector_impl_data", ptr %_M_impl2, i32 0, i32 0
  %1 = load ptr, ptr %_M_start, align 8
  %sub.ptr.lhs.cast = ptrtoint ptr %0 to i64
  %sub.ptr.rhs.cast = ptrtoint ptr %1 to i64
  %sub.ptr.sub = sub i64 %sub.ptr.lhs.cast, %sub.ptr.rhs.cast
  %sub.ptr.div = sdiv exact i64 %sub.ptr.sub, 8
  ret i64 %sub.ptr.div
}

; Function Attrs: mustprogress uwtable
define hidden noundef ptr @_ZN7Imf_3_218MultiPartInputFile4Data7getPartEi(ptr noundef nonnull align 8 dereferenceable(168) %this, i32 noundef %partNumber) #4 align 2 personality ptr @__gxx_personality_v0 {
entry:
  %this.addr = alloca ptr, align 8
  %partNumber.addr = alloca i32, align 4
  %_iex_throw_s = alloca %"class.std::__cxx11::basic_stringstream", align 8
  %exn.slot = alloca ptr, align 8
  %ehselector.slot = alloca i32, align 4
  store ptr %this, ptr %this.addr, align 8
  store i32 %partNumber, ptr %partNumber.addr, align 4
  %this1 = load ptr, ptr %this.addr, align 8
  %0 = load i32, ptr %partNumber.addr, align 4
  %cmp = icmp slt i32 %0, 0
  br i1 %cmp, label %if.then, label %lor.lhs.false

lor.lhs.false:                                    ; preds = %entry
  %1 = load i32, ptr %partNumber.addr, align 4
  %parts = getelementptr inbounds %"struct.Imf_3_2::MultiPartInputFile::Data", ptr %this1, i32 0, i32 3
  %call = call noundef i64 @_ZNKSt6vectorIPN7Imf_3_213InputPartDataESaIS2_EE4sizeEv(ptr noundef nonnull align 8 dereferenceable(24) %parts) #3
  %conv = trunc i64 %call to i32
  %cmp2 = icmp sge i32 %1, %conv
  br i1 %cmp2, label %if.then, label %if.end

if.then:                                          ; preds = %lor.lhs.false, %entry
  br label %do.body

do.body:                                          ; preds = %if.then
  call void @_Z13iex_debugTrapv()
  call void @_ZNSt7__cxx1118basic_stringstreamIcSt11char_traitsIcESaIcEEC1Ev(ptr noundef nonnull align 8 dereferenceable(128) %_iex_throw_s)
  %add.ptr = getelementptr inbounds i8, ptr %_iex_throw_s, i64 16
  %call3 = invoke noundef nonnull align 8 dereferenceable(8) ptr @_ZStlsISt11char_traitsIcEERSt13basic_ostreamIcT_ES5_PKc(ptr noundef nonnull align 8 dereferenceable(8) %add.ptr, ptr noundef @.str.33)
          to label %invoke.cont unwind label %lpad

invoke.cont:                                      ; preds = %do.body
  %2 = load i32, ptr %partNumber.addr, align 4
  %call5 = invoke noundef nonnull align 8 dereferenceable(8) ptr @_ZNSolsEi(ptr noundef nonnull align 8 dereferenceable(8) %call3, i32 noundef %2)
          to label %invoke.cont4 unwind label %lpad

invoke.cont4:                                     ; preds = %invoke.cont
  %call7 = invoke noundef nonnull align 8 dereferenceable(8) ptr @_ZStlsISt11char_traitsIcEERSt13basic_ostreamIcT_ES5_PKc(ptr noundef nonnull align 8 dereferenceable(8) %call5, ptr noundef @.str.11)
          to label %invoke.cont6 unwind label %lpad

invoke.cont6:                                     ; preds = %invoke.cont4
  %parts8 = getelementptr inbounds %"struct.Imf_3_2::MultiPartInputFile::Data", ptr %this1, i32 0, i32 3
  %call9 = call noundef i64 @_ZNKSt6vectorIPN7Imf_3_213InputPartDataESaIS2_EE4sizeEv(ptr noundef nonnull align 8 dereferenceable(24) %parts8) #3
  %call11 = invoke noundef nonnull align 8 dereferenceable(8) ptr @_ZNSolsEm(ptr noundef nonnull align 8 dereferenceable(8) %call7, i64 noundef %call9)
          to label %invoke.cont10 unwind label %lpad

invoke.cont10:                                    ; preds = %invoke.cont6
  %call13 = invoke noundef nonnull align 8 dereferenceable(8) ptr @_ZStlsISt11char_traitsIcEERSt13basic_ostreamIcT_ES5_PKc(ptr noundef nonnull align 8 dereferenceable(8) %call11, ptr noundef @.str.12)
          to label %invoke.cont12 unwind label %lpad

invoke.cont12:                                    ; preds = %invoke.cont10
  %exception = call ptr @__cxa_allocate_exception(i64 72) #3
  invoke void @_ZN7Iex_3_26ArgExcC1ERNSt7__cxx1118basic_stringstreamIcSt11char_traitsIcESaIcEEE(ptr noundef nonnull align 8 dereferenceable(72) %exception, ptr noundef nonnull align 8 dereferenceable(128) %_iex_throw_s)
          to label %invoke.cont15 unwind label %lpad14

invoke.cont15:                                    ; preds = %invoke.cont12
  invoke void @__cxa_throw(ptr %exception, ptr @_ZTIN7Iex_3_26ArgExcE, ptr @_ZN7Iex_3_26ArgExcD1Ev) #16
          to label %unreachable unwind label %lpad

lpad:                                             ; preds = %invoke.cont15, %invoke.cont10, %invoke.cont6, %invoke.cont4, %invoke.cont, %do.body
  %3 = landingpad { ptr, i32 }
          cleanup
  %4 = extractvalue { ptr, i32 } %3, 0
  store ptr %4, ptr %exn.slot, align 8
  %5 = extractvalue { ptr, i32 } %3, 1
  store i32 %5, ptr %ehselector.slot, align 4
  br label %ehcleanup

lpad14:                                           ; preds = %invoke.cont12
  %6 = landingpad { ptr, i32 }
          cleanup
  %7 = extractvalue { ptr, i32 } %6, 0
  store ptr %7, ptr %exn.slot, align 8
  %8 = extractvalue { ptr, i32 } %6, 1
  store i32 %8, ptr %ehselector.slot, align 4
  call void @__cxa_free_exception(ptr %exception) #3
  br label %ehcleanup

ehcleanup:                                        ; preds = %lpad14, %lpad
  call void @_ZNSt7__cxx1118basic_stringstreamIcSt11char_traitsIcESaIcEED1Ev(ptr noundef nonnull align 8 dereferenceable(128) %_iex_throw_s) #3
  br label %eh.resume

do.end:                                           ; No predecessors!
  br label %if.end

if.end:                                           ; preds = %do.end, %lor.lhs.false
  %parts16 = getelementptr inbounds %"struct.Imf_3_2::MultiPartInputFile::Data", ptr %this1, i32 0, i32 3
  %9 = load i32, ptr %partNumber.addr, align 4
  %conv17 = sext i32 %9 to i64
  %call18 = call noundef nonnull align 8 dereferenceable(8) ptr @_ZNSt6vectorIPN7Imf_3_213InputPartDataESaIS2_EEixEm(ptr noundef nonnull align 8 dereferenceable(24) %parts16, i64 noundef %conv17) #3
  %10 = load ptr, ptr %call18, align 8
  ret ptr %10

eh.resume:                                        ; preds = %ehcleanup
  %exn = load ptr, ptr %exn.slot, align 8
  %sel = load i32, ptr %ehselector.slot, align 4
  %lpad.val = insertvalue { ptr, i32 } poison, ptr %exn, 0
  %lpad.val19 = insertvalue { ptr, i32 } %lpad.val, i32 %sel, 1
  resume { ptr, i32 } %lpad.val19

unreachable:                                      ; preds = %invoke.cont15
  unreachable
}