; Function Attrs: mustprogress uwtable
define hidden noundef ptr @_ZN7Imf_3_218MultiPartInputFile4Data7getPartEi(ptr nocapture noundef nonnull readonly align 8 dereferenceable(168) %this, i32 noundef %partNumber) local_unnamed_addr #3 align 2 personality ptr @__gxx_personality_v0 {
entry:
  %_iex_throw_s = alloca %"class.std::__cxx11::basic_stringstream", align 8
  %cmp = icmp slt i32 %partNumber, 0
  br i1 %cmp, label %do.body, label %lor.lhs.false

lor.lhs.false:                                    ; preds = %entry
  %parts = getelementptr inbounds i8, ptr %this, i64 64
  %_M_finish.i = getelementptr inbounds i8, ptr %this, i64 72
  %0 = load ptr, ptr %_M_finish.i, align 8
  %1 = load ptr, ptr %parts, align 8
  %sub.ptr.lhs.cast.i = ptrtoint ptr %0 to i64
  %sub.ptr.rhs.cast.i = ptrtoint ptr %1 to i64
  %sub.ptr.sub.i = sub i64 %sub.ptr.lhs.cast.i, %sub.ptr.rhs.cast.i
  %sub.ptr.div.i = lshr exact i64 %sub.ptr.sub.i, 3
  %conv = trunc i64 %sub.ptr.div.i to i32
  %cmp2.not = icmp sgt i32 %conv, %partNumber
  br i1 %cmp2.not, label %if.end, label %do.body

do.body:                                          ; preds = %entry, %lor.lhs.false
  tail call void @_Z13iex_debugTrapv()
  call void @_ZNSt7__cxx1118basic_stringstreamIcSt11char_traitsIcESaIcEEC1Ev(ptr noundef nonnull align 8 dereferenceable(128) %_iex_throw_s)
  %add.ptr = getelementptr inbounds i8, ptr %_iex_throw_s, i64 16
  %call3 = invoke noundef nonnull align 8 dereferenceable(8) ptr @_ZStlsISt11char_traitsIcEERSt13basic_ostreamIcT_ES5_PKc(ptr noundef nonnull align 8 dereferenceable(8) %add.ptr, ptr noundef nonnull @.str.33)
          to label %invoke.cont unwind label %lpad

invoke.cont:                                      ; preds = %do.body
  %call5 = invoke noundef nonnull align 8 dereferenceable(8) ptr @_ZNSolsEi(ptr noundef nonnull align 8 dereferenceable(8) %call3, i32 noundef %partNumber)
          to label %invoke.cont4 unwind label %lpad

invoke.cont4:                                     ; preds = %invoke.cont
  %call7 = invoke noundef nonnull align 8 dereferenceable(8) ptr @_ZStlsISt11char_traitsIcEERSt13basic_ostreamIcT_ES5_PKc(ptr noundef nonnull align 8 dereferenceable(8) %call5, ptr noundef nonnull @.str.11)
          to label %invoke.cont6 unwind label %lpad

invoke.cont6:                                     ; preds = %invoke.cont4
  %parts8 = getelementptr inbounds i8, ptr %this, i64 64
  %_M_finish.i5 = getelementptr inbounds i8, ptr %this, i64 72
  %2 = load ptr, ptr %_M_finish.i5, align 8
  %3 = load ptr, ptr %parts8, align 8
  %sub.ptr.lhs.cast.i6 = ptrtoint ptr %2 to i64
  %sub.ptr.rhs.cast.i7 = ptrtoint ptr %3 to i64
  %sub.ptr.sub.i8 = sub i64 %sub.ptr.lhs.cast.i6, %sub.ptr.rhs.cast.i7
  %sub.ptr.div.i9 = ashr exact i64 %sub.ptr.sub.i8, 3
  %call11 = invoke noundef nonnull align 8 dereferenceable(8) ptr @_ZNSolsEm(ptr noundef nonnull align 8 dereferenceable(8) %call7, i64 noundef %sub.ptr.div.i9)
          to label %invoke.cont10 unwind label %lpad

invoke.cont10:                                    ; preds = %invoke.cont6
  %call13 = invoke noundef nonnull align 8 dereferenceable(8) ptr @_ZStlsISt11char_traitsIcEERSt13basic_ostreamIcT_ES5_PKc(ptr noundef nonnull align 8 dereferenceable(8) %call11, ptr noundef nonnull @.str.12)
          to label %invoke.cont12 unwind label %lpad

invoke.cont12:                                    ; preds = %invoke.cont10
  %exception = call ptr @__cxa_allocate_exception(i64 72) #22
  invoke void @_ZN7Iex_3_26ArgExcC1ERNSt7__cxx1118basic_stringstreamIcSt11char_traitsIcESaIcEEE(ptr noundef nonnull align 8 dereferenceable(72) %exception, ptr noundef nonnull align 8 dereferenceable(128) %_iex_throw_s)
          to label %invoke.cont15 unwind label %lpad14

invoke.cont15:                                    ; preds = %invoke.cont12
  invoke void @__cxa_throw(ptr nonnull %exception, ptr nonnull @_ZTIN7Iex_3_26ArgExcE, ptr nonnull @_ZN7Iex_3_26ArgExcD1Ev) #23
          to label %unreachable unwind label %lpad

lpad:                                             ; preds = %invoke.cont15, %invoke.cont10, %invoke.cont6, %invoke.cont4, %invoke.cont, %do.body
  %4 = landingpad { ptr, i32 }
          cleanup
  br label %ehcleanup

lpad14:                                           ; preds = %invoke.cont12
  %5 = landingpad { ptr, i32 }
          cleanup
  call void @__cxa_free_exception(ptr %exception) #22
  br label %ehcleanup

ehcleanup:                                        ; preds = %lpad14, %lpad
  %.pn = phi { ptr, i32 } [ %4, %lpad ], [ %5, %lpad14 ]
  call void @_ZNSt7__cxx1118basic_stringstreamIcSt11char_traitsIcESaIcEED1Ev(ptr noundef nonnull align 8 dereferenceable(128) %_iex_throw_s) #22
  resume { ptr, i32 } %.pn

if.end:                                           ; preds = %lor.lhs.false
  %conv17 = zext nneg i32 %partNumber to i64
  %add.ptr.i = getelementptr inbounds ptr, ptr %1, i64 %conv17
  %6 = load ptr, ptr %add.ptr.i, align 8
  ret ptr %6

unreachable:                                      ; preds = %invoke.cont15
  unreachable
}